; Function Attrs: nounwind uwtable
define internal void @ff_jref_idct2_put(ptr noundef writeonly captures(none) %0, i64 noundef %1, ptr noundef %2) #4 {
  tail call void @ff_j_rev_dct2(ptr noundef %2) #7
  tail call void @llvm.experimental.noalias.scope.decl(metadata !57)
  %sext = shl i64 %1, 32
  %4 = ashr exact i64 %sext, 32
  br label %5

5:                                                ; preds = %5, %3
  %6 = phi i1 [ true, %3 ], [ false, %5 ]
  %.0814.i = phi ptr [ %2, %3 ], [ %16, %5 ]
  %.0913.i = phi ptr [ %0, %3 ], [ %15, %5 ]
  %7 = load i16, ptr %.0814.i, align 2, !tbaa !13, !noalias !57
  %.not.i10.i = icmp ult i16 %7, 256
  %isnotneg.i11.i = icmp sgt i16 %7, -1
  %8 = sext i1 %isnotneg.i11.i to i8
  %9 = trunc i16 %7 to i8
  %.0.i12.i = select i1 %.not.i10.i, i8 %9, i8 %8
  store i8 %.0.i12.i, ptr %.0913.i, align 1, !tbaa !4, !alias.scope !57
  %10 = getelementptr inbounds nuw i8, ptr %.0814.i, i64 2
  %11 = load i16, ptr %10, align 2, !tbaa !13, !noalias !57
  %.not.i.i = icmp ult i16 %11, 256
  %isnotneg.i.i = icmp sgt i16 %11, -1
  %12 = sext i1 %isnotneg.i.i to i8
  %13 = trunc i16 %11 to i8
  %.0.i.i = select i1 %.not.i.i, i8 %13, i8 %12
  %14 = getelementptr inbounds nuw i8, ptr %.0913.i, i64 1
  store i8 %.0.i.i, ptr %14, align 1, !tbaa !4, !alias.scope !57
  %15 = getelementptr inbounds i8, ptr %.0913.i, i64 %4
  %16 = getelementptr inbounds nuw i8, ptr %.0814.i, i64 16
  br i1 %6, label %5, label %put_pixels_clamped2_c.exit, !llvm.loop !60

put_pixels_clamped2_c.exit:                       ; preds = %5
  ret void
}